target datalayout = "e-m:e-p270:32:32-p271:32:32-p272:64:64-i64:64-i128:128-f80:128-n8:16:32:64-S128"
target triple = "x86_64-pc-linux-gnu"

%struct.FLAC__BitReader = type { ptr, i32, i32, i32, i32, i32, i32, i32, i32, i32, i32, i32, ptr, ptr }

; Function Attrs: nounwind sspstrong uwtable
define hidden i32 @FLAC__bitreader_skip_bits_no_crc(ptr noundef %0, i32 noundef %1) #0 {
  %3 = alloca i32, align 4
  %4 = alloca ptr, align 8
  %5 = alloca i32, align 4
  %6 = alloca i32, align 4
  %7 = alloca i32, align 4
  %8 = alloca i32, align 4
  %9 = alloca i32, align 4
  store ptr %0, ptr %4, align 8, !tbaa !3
  store i32 %1, ptr %5, align 4, !tbaa !32
  %10 = load i32, ptr %5, align 4, !tbaa !32
  %11 = icmp ugt i32 %10, 0
  br i1 %11, label %12, label %68

12:                                               ; preds = %2
  call void @llvm.lifetime.start.p0(i64 4, ptr %6) #10
  %13 = load ptr, ptr %4, align 8, !tbaa !3
  %14 = getelementptr inbounds nuw %struct.FLAC__BitReader, ptr %13, i32 0, i32 5
  %15 = load i32, ptr %14, align 8, !tbaa !15
  %16 = and i32 %15, 7
  store i32 %16, ptr %6, align 4, !tbaa !32
  call void @llvm.lifetime.start.p0(i64 4, ptr %7) #10
  call void @llvm.lifetime.start.p0(i64 4, ptr %8) #10
  %17 = load i32, ptr %6, align 4, !tbaa !32
  %18 = icmp ne i32 %17, 0
  br i1 %18, label %19, label %40

19:                                               ; preds = %12
  %20 = load i32, ptr %6, align 4, !tbaa !32
  %21 = sub i32 8, %20
  %22 = load i32, ptr %5, align 4, !tbaa !32
  %23 = icmp ult i32 %21, %22
  br i1 %23, label %24, label %27

24:                                               ; preds = %19
  %25 = load i32, ptr %6, align 4, !tbaa !32
  %26 = sub i32 8, %25
  br label %29

27:                                               ; preds = %19
  %28 = load i32, ptr %5, align 4, !tbaa !32
  br label %29

29:                                               ; preds = %27, %24
  %30 = phi i32 [ %26, %24 ], [ %28, %27 ]
  store i32 %30, ptr %7, align 4, !tbaa !32
  %31 = load ptr, ptr %4, align 8, !tbaa !3
  %32 = load i32, ptr %7, align 4, !tbaa !32
  %33 = call i32 @FLAC__bitreader_read_raw_uint32(ptr noundef %31, ptr noundef %8, i32 noundef %32)
  %34 = icmp ne i32 %33, 0
  br i1 %34, label %36, label %35

35:                                               ; preds = %29
  store i32 0, ptr %3, align 4
  store i32 1, ptr %9, align 4
  br label %65

36:                                               ; preds = %29
  %37 = load i32, ptr %7, align 4, !tbaa !32
  %38 = load i32, ptr %5, align 4, !tbaa !32
  %39 = sub i32 %38, %37
  store i32 %39, ptr %5, align 4, !tbaa !32
  br label %40

40:                                               ; preds = %36, %12
  %41 = load i32, ptr %5, align 4, !tbaa !32
  %42 = udiv i32 %41, 8
  store i32 %42, ptr %7, align 4, !tbaa !32
  %43 = load i32, ptr %7, align 4, !tbaa !32
  %44 = icmp ugt i32 %43, 0
  br i1 %44, label %45, label %54

45:                                               ; preds = %40
  %46 = load ptr, ptr %4, align 8, !tbaa !3
  %47 = load i32, ptr %7, align 4, !tbaa !32
  %48 = call i32 @FLAC__bitreader_skip_byte_block_aligned_no_crc(ptr noundef %46, i32 noundef %47)
  %49 = icmp ne i32 %48, 0
  br i1 %49, label %51, label %50

50:                                               ; preds = %45
  store i32 0, ptr %3, align 4
  store i32 1, ptr %9, align 4
  br label %65

51:                                               ; preds = %45
  %52 = load i32, ptr %5, align 4, !tbaa !32
  %53 = urem i32 %52, 8
  store i32 %53, ptr %5, align 4, !tbaa !32
  br label %54

54:                                               ; preds = %51, %40
  %55 = load i32, ptr %5, align 4, !tbaa !32
  %56 = icmp ugt i32 %55, 0
  br i1 %56, label %57, label %64

57:                                               ; preds = %54
  %58 = load ptr, ptr %4, align 8, !tbaa !3
  %59 = load i32, ptr %5, align 4, !tbaa !32
  %60 = call i32 @FLAC__bitreader_read_raw_uint32(ptr noundef %58, ptr noundef %8, i32 noundef %59)
  %61 = icmp ne i32 %60, 0
  br i1 %61, label %63, label %62

62:                                               ; preds = %57
  store i32 0, ptr %3, align 4
  store i32 1, ptr %9, align 4
  br label %65

63:                                               ; preds = %57
  br label %64

64:                                               ; preds = %63, %54
  store i32 0, ptr %9, align 4
  br label %65

65:                                               ; preds = %64, %62, %50, %35
  call void @llvm.lifetime.end.p0(i64 4, ptr %8) #10
  call void @llvm.lifetime.end.p0(i64 4, ptr %7) #10
  call void @llvm.lifetime.end.p0(i64 4, ptr %6) #10
  %66 = load i32, ptr %9, align 4
  switch i32 %66, label %71 [
    i32 0, label %67
    i32 1, label %69
  ]

67:                                               ; preds = %65
  br label %68

68:                                               ; preds = %67, %2
  store i32 1, ptr %3, align 4
  br label %69

69:                                               ; preds = %68, %65
  %70 = load i32, ptr %3, align 4
  ret i32 %70

71:                                               ; preds = %65
  unreachable
}