; Function Attrs: nounwind sspstrong uwtable
define hidden range(i32 0, 2) i32 @FLAC__bitreader_skip_bits_no_crc(ptr noundef captures(none) %0, i32 noundef %1) local_unnamed_addr #9 {
  %3 = alloca i32, align 4
  %.not = icmp eq i32 %1, 0
  br i1 %.not, label %24, label %4

4:                                                ; preds = %2
  %5 = getelementptr inbounds nuw i8, ptr %0, i64 24
  %6 = load i32, ptr %5, align 8, !tbaa !17
  %7 = and i32 %6, 7
  call void @llvm.lifetime.start.p0(i64 4, ptr nonnull %3) #21
  %.not26 = icmp eq i32 %7, 0
  br i1 %.not26, label %14, label %8

8:                                                ; preds = %4
  %9 = sub nuw nsw i32 8, %7
  %10 = tail call i32 @llvm.umin.i32(i32 %9, i32 %1)
  %11 = call i32 @FLAC__bitreader_read_raw_uint32(ptr noundef nonnull %0, ptr noundef nonnull %3, i32 noundef %10)
  %.not27 = icmp eq i32 %11, 0
  br i1 %.not27, label %.sink.split, label %12

12:                                               ; preds = %8
  %13 = sub i32 %1, %10
  br label %14

14:                                               ; preds = %12, %4
  %.021 = phi i32 [ %13, %12 ], [ %1, %4 ]
  %.not28 = icmp ult i32 %.021, 8
  br i1 %.not28, label %20, label %15

15:                                               ; preds = %14
  %16 = lshr i32 %.021, 3
  %17 = tail call i32 @FLAC__bitreader_skip_byte_block_aligned_no_crc(ptr noundef nonnull %0, i32 noundef %16)
  %.not29 = icmp eq i32 %17, 0
  br i1 %.not29, label %.sink.split, label %18

18:                                               ; preds = %15
  %19 = and i32 %.021, 7
  br label %20

20:                                               ; preds = %18, %14
  %.122 = phi i32 [ %19, %18 ], [ %.021, %14 ]
  %.not30 = icmp eq i32 %.122, 0
  br i1 %.not30, label %23, label %21

21:                                               ; preds = %20
  %22 = call i32 @FLAC__bitreader_read_raw_uint32(ptr noundef nonnull %0, ptr noundef nonnull %3, i32 noundef %.122)
  %.not31 = icmp eq i32 %22, 0
  br i1 %.not31, label %.sink.split, label %23

23:                                               ; preds = %20, %21
  br label %.sink.split

.sink.split:                                      ; preds = %21, %15, %8, %23
  %.1.ph = phi i32 [ 1, %23 ], [ 0, %8 ], [ 0, %15 ], [ 0, %21 ]
  call void @llvm.lifetime.end.p0(i64 4, ptr nonnull %3) #21
  br label %24

24:                                               ; preds = %.sink.split, %2
  %.1 = phi i32 [ 1, %2 ], [ %.1.ph, %.sink.split ]
  ret i32 %.1
}